target datalayout = "e-m:e-p270:32:32-p271:32:32-p272:64:64-i64:64-i128:128-f80:128-n8:16:32:64-S128"
target triple = "x86_64-pc-linux-gnu"

; Function Attrs: nounwind uwtable
define internal i32 @clamp(i32 noundef %0, i32 noundef %1, i32 noundef %2) #0 {
  %4 = alloca i32, align 4
  %5 = alloca i32, align 4
  %6 = alloca i32, align 4
  store i32 %0, ptr %4, align 4
  store i32 %1, ptr %5, align 4
  store i32 %2, ptr %6, align 4
  %7 = load i32, ptr %4, align 4
  %8 = load i32, ptr %5, align 4
  %9 = icmp slt i32 %7, %8
  br i1 %9, label %10, label %12

10:                                               ; preds = %3
  %11 = load i32, ptr %5, align 4
  br label %22

12:                                               ; preds = %3
  %13 = load i32, ptr %4, align 4
  %14 = load i32, ptr %6, align 4
  %15 = icmp sgt i32 %13, %14
  br i1 %15, label %16, label %18

16:                                               ; preds = %12
  %17 = load i32, ptr %6, align 4
  br label %20

18:                                               ; preds = %12
  %19 = load i32, ptr %4, align 4
  br label %20

20:                                               ; preds = %18, %16
  %21 = phi i32 [ %17, %16 ], [ %19, %18 ]
  br label %22

22:                                               ; preds = %20, %10
  %23 = phi i32 [ %11, %10 ], [ %21, %20 ]
  ret i32 %23
}

; Function Attrs: nounwind uwtable
define hidden signext i16 @av1_dc_quant_QTX(i32 noundef %0, i32 noundef %1, i32 noundef %2) #0 {
  %4 = alloca i16, align 2
  %5 = alloca i32, align 4
  %6 = alloca i32, align 4
  %7 = alloca i32, align 4
  %8 = alloca i32, align 4
  store i32 %0, ptr %5, align 4
  store i32 %1, ptr %6, align 4
  store i32 %2, ptr %7, align 4
  %9 = load i32, ptr %5, align 4
  %10 = load i32, ptr %6, align 4
  %11 = add nsw i32 %9, %10
  %12 = call i32 @clamp(i32 noundef %11, i32 noundef 0, i32 noundef 255)
  store i32 %12, ptr %8, align 4
  %13 = load i32, ptr %7, align 4
  switch i32 %13, label %29 [
    i32 8, label %14
    i32 10, label %19
    i32 12, label %24
  ]

14:                                               ; preds = %3
  %15 = load i32, ptr %8, align 4
  %16 = sext i32 %15 to i64
  %17 = getelementptr inbounds [256 x i16], ptr @dc_qlookup_QTX, i64 0, i64 %16
  %18 = load i16, ptr %17, align 2
  store i16 %18, ptr %4, align 2
  br label %30

19:                                               ; preds = %3
  %20 = load i32, ptr %8, align 4
  %21 = sext i32 %20 to i64
  %22 = getelementptr inbounds [256 x i16], ptr @dc_qlookup_10_QTX, i64 0, i64 %21
  %23 = load i16, ptr %22, align 2
  store i16 %23, ptr %4, align 2
  br label %30

24:                                               ; preds = %3
  %25 = load i32, ptr %8, align 4
  %26 = sext i32 %25 to i64
  %27 = getelementptr inbounds [256 x i16], ptr @dc_qlookup_12_QTX, i64 0, i64 %26
  %28 = load i16, ptr %27, align 2
  store i16 %28, ptr %4, align 2
  br label %30

29:                                               ; preds = %3
  store i16 -1, ptr %4, align 2
  br label %30

30:                                               ; preds = %29, %24, %19, %14
  %31 = load i16, ptr %4, align 2
  ret i16 %31
}